target datalayout = "e-m:e-p270:32:32-p271:32:32-p272:64:64-i64:64-i128:128-f80:128-n8:16:32:64-S128"
target triple = "x86_64-pc-linux-gnu"

%class.DumpTimeSharedClassTable = type { %class.ResourceHashtable.base, i32, i32, [4 x i8] }
%class.ResourceHashtable.base = type { %class.ResourceHashtableBase.base }
%class.ResourceHashtableBase.base = type <{ %class.FixedResourceHashtableStorage, i32 }>
%class.FixedResourceHashtableStorage = type { [15889 x ptr] }

@_ZN22SystemDictionaryShared15_dumptime_tableE = hidden global ptr null, align 8

; Function Attrs: mustprogress nounwind uwtable
define linkonce_odr hidden noundef i32 @_ZNK24DumpTimeSharedClassTable8count_ofEb(ptr noundef nonnull align 8 dereferenceable(127124) %0, i1 noundef zeroext %1) #1 comdat align 2 {
  %3 = alloca i32, align 4
  %4 = alloca ptr, align 8
  %5 = alloca i8, align 1
  store ptr %0, ptr %4, align 8
  %6 = zext i1 %1 to i8
  store i8 %6, ptr %5, align 1
  %7 = load ptr, ptr %4, align 8
  %8 = load i8, ptr %5, align 1
  %9 = trunc i8 %8 to i1
  br i1 %9, label %10, label %13

10:                                               ; preds = %2
  %11 = getelementptr inbounds %class.DumpTimeSharedClassTable, ptr %7, i32 0, i32 1
  %12 = load i32, ptr %11, align 4
  store i32 %12, ptr %3, align 4
  br label %16

13:                                               ; preds = %2
  %14 = getelementptr inbounds %class.DumpTimeSharedClassTable, ptr %7, i32 0, i32 2
  %15 = load i32, ptr %14, align 8
  store i32 %15, ptr %3, align 4
  br label %16

16:                                               ; preds = %13, %10
  %17 = load i32, ptr %3, align 4
  ret i32 %17
}

; Function Attrs: mustprogress nounwind uwtable
define hidden noundef zeroext i1 @_ZN22SystemDictionaryShared23is_dumptime_table_emptyEv() #1 align 2 {
  %1 = alloca i1, align 1
  %2 = load ptr, ptr @_ZN22SystemDictionaryShared15_dumptime_tableE, align 8
  call void @_ZN24DumpTimeSharedClassTable13update_countsEv(ptr noundef nonnull align 8 dereferenceable(127124) %2)
  %3 = load ptr, ptr @_ZN22SystemDictionaryShared15_dumptime_tableE, align 8
  %4 = call noundef i32 @_ZNK24DumpTimeSharedClassTable8count_ofEb(ptr noundef nonnull align 8 dereferenceable(127124) %3, i1 noundef zeroext true)
  %5 = icmp eq i32 %4, 0
  br i1 %5, label %6, label %11

6:                                                ; preds = %0
  %7 = load ptr, ptr @_ZN22SystemDictionaryShared15_dumptime_tableE, align 8
  %8 = call noundef i32 @_ZNK24DumpTimeSharedClassTable8count_ofEb(ptr noundef nonnull align 8 dereferenceable(127124) %7, i1 noundef zeroext false)
  %9 = icmp eq i32 %8, 0
  br i1 %9, label %10, label %11

10:                                               ; preds = %6
  store i1 true, ptr %1, align 1
  br label %12

11:                                               ; preds = %6, %0
  store i1 false, ptr %1, align 1
  br label %12

12:                                               ; preds = %11, %10
  %13 = load i1, ptr %1, align 1
  ret i1 %13
}