; Function Attrs: mustprogress nounwind uwtable
define hidden noundef zeroext i1 @_ZN22SystemDictionaryShared23is_dumptime_table_emptyEv() local_unnamed_addr #0 align 2 {
  %1 = load ptr, ptr @_ZN22SystemDictionaryShared15_dumptime_tableE, align 8
  tail call void @_ZN24DumpTimeSharedClassTable13update_countsEv(ptr noundef nonnull align 8 dereferenceable(127124) %1) #18
  %2 = load ptr, ptr @_ZN22SystemDictionaryShared15_dumptime_tableE, align 8
  %.0.in.i = getelementptr inbounds i8, ptr %2, i64 127116
  %.0.i = load i32, ptr %.0.in.i, align 4
  %3 = icmp eq i32 %.0.i, 0
  br i1 %3, label %4, label %6

4:                                                ; preds = %0
  %.0.in.i1 = getelementptr inbounds i8, ptr %2, i64 127120
  %.0.i2 = load i32, ptr %.0.in.i1, align 4
  %5 = icmp eq i32 %.0.i2, 0
  br i1 %5, label %7, label %6

6:                                                ; preds = %4, %0
  br label %7

7:                                                ; preds = %4, %6
  %.0 = phi i1 [ false, %6 ], [ true, %4 ]
  ret i1 %.0
}